; Function Attrs: mustprogress uwtable
define hidden noundef ptr @_ZNK7datalog13udoc_relation8fact2docERKNS_13relation_factE(ptr noundef nonnull readonly align 8 captures(none) dereferenceable(128) %0, ptr noundef nonnull readonly align 8 captures(none) dereferenceable(16) %1) local_unnamed_addr #3 align 2 personality ptr @__gxx_personality_v0 {
  %3 = alloca i32, align 4
  %4 = alloca %class.rational, align 8
  %5 = getelementptr inbounds nuw i8, ptr %0, i64 32
  %6 = load ptr, ptr %5, align 8, !tbaa !144
  %7 = tail call noundef ptr @_ZN11doc_manager9allocate0Ev(ptr noundef nonnull align 8 dereferenceable(1080) %6)
  %8 = getelementptr inbounds nuw i8, ptr %1, i64 8
  %9 = getelementptr inbounds nuw i8, ptr %4, i64 4
  %10 = getelementptr inbounds nuw i8, ptr %4, i64 8
  %11 = getelementptr inbounds nuw i8, ptr %4, i64 16
  %12 = getelementptr inbounds nuw i8, ptr %4, i64 20
  %13 = getelementptr inbounds nuw i8, ptr %4, i64 24
  %14 = getelementptr inbounds nuw i8, ptr %0, i64 8
  %15 = getelementptr inbounds nuw i8, ptr %0, i64 120
  br label %16

16:                                               ; preds = %_ZN8rationalD2Ev.exit, %2
  %indvars.iv = phi i64 [ %indvars.iv.next, %_ZN8rationalD2Ev.exit ], [ 0, %2 ]
  %17 = load ptr, ptr %8, align 8, !tbaa !160
  %18 = icmp eq ptr %17, null
  br i1 %18, label %_ZNK15ref_vector_coreI3app19ref_manager_wrapperIS0_11ast_managerEE4sizeEv.exit, label %19

19:                                               ; preds = %16
  %20 = getelementptr inbounds i8, ptr %17, i64 -4
  %21 = load i32, ptr %20, align 4, !tbaa !14
  %22 = zext i32 %21 to i64
  br label %_ZNK15ref_vector_coreI3app19ref_manager_wrapperIS0_11ast_managerEE4sizeEv.exit

_ZNK15ref_vector_coreI3app19ref_manager_wrapperIS0_11ast_managerEE4sizeEv.exit: ; preds = %16, %19
  %.0.i.i = phi i64 [ %22, %19 ], [ 0, %16 ]
  %23 = icmp samesign ult i64 %indvars.iv, %.0.i.i
  br i1 %23, label %25, label %24

24:                                               ; preds = %_ZNK15ref_vector_coreI3app19ref_manager_wrapperIS0_11ast_managerEE4sizeEv.exit
  ret ptr %7

25:                                               ; preds = %_ZNK15ref_vector_coreI3app19ref_manager_wrapperIS0_11ast_managerEE4sizeEv.exit
  call void @llvm.lifetime.start.p0(i64 4, ptr nonnull %3) #24
  call void @llvm.lifetime.start.p0(i64 32, ptr nonnull %4) #24
  store i32 0, ptr %4, align 8, !tbaa !163
  %26 = load i8, ptr %9, align 4
  %27 = and i8 %26, -4
  store i8 %27, ptr %9, align 4
  store ptr null, ptr %10, align 8, !tbaa !166
  store i32 1, ptr %11, align 8, !tbaa !163
  %28 = load i8, ptr %12, align 4
  %29 = and i8 %28, -4
  store i8 %29, ptr %12, align 4
  store ptr null, ptr %13, align 8, !tbaa !166
  %30 = load ptr, ptr %14, align 8, !tbaa !167
  %31 = getelementptr inbounds nuw ptr, ptr %17, i64 %indvars.iv
  %32 = load ptr, ptr %31, align 8, !tbaa !168
  %33 = invoke noundef zeroext i1 @_ZN7datalog11udoc_plugin10is_numeralEP4exprR8rationalRj(ptr noundef nonnull align 8 dereferenceable(129) %30, ptr noundef %32, ptr noundef nonnull align 8 dereferenceable(32) %4, ptr noundef nonnull align 4 dereferenceable(4) %3)
          to label %34 unwind label %37

34:                                               ; preds = %25
  br i1 %33, label %39, label %35

35:                                               ; preds = %34
  invoke void @_Z26notify_assertion_violationPKciS0_(ptr noundef nonnull @.str, i32 noundef 72, ptr noundef nonnull @.str.1)
          to label %36 unwind label %37

36:                                               ; preds = %35
  invoke void @_Z18invoke_exit_actionj(i32 noundef 114)
          to label %39 unwind label %37

37:                                               ; preds = %36, %35, %25
  %38 = landingpad { ptr, i32 }
          cleanup
  br label %55

39:                                               ; preds = %36, %34
  %40 = load ptr, ptr %15, align 8, !tbaa !37
  %41 = getelementptr inbounds nuw i32, ptr %40, i64 %indvars.iv
  %42 = load i32, ptr %41, align 4, !tbaa !14
  %indvars.iv.next = add nuw nsw i64 %indvars.iv, 1
  %43 = getelementptr inbounds nuw i32, ptr %40, i64 %indvars.iv.next
  %44 = load i32, ptr %43, align 4, !tbaa !14
  %45 = load ptr, ptr %5, align 8, !tbaa !144
  %46 = load ptr, ptr %7, align 8, !tbaa !169
  %47 = add i32 %44, -1
  invoke void @_ZN11tbv_manager3setER3tbvRK8rationaljj(ptr noundef nonnull align 8 dereferenceable(552) %45, ptr noundef nonnull align 4 dereferenceable(4) %46, ptr noundef nonnull align 8 dereferenceable(32) %4, i32 noundef %47, i32 noundef %42)
          to label %48 unwind label %53

48:                                               ; preds = %39
  %49 = load ptr, ptr @_ZN8rational13g_mpq_managerE, align 8, !tbaa !175
  invoke void @_ZN11mpz_managerILb1EE3delEPS0_R3mpz(ptr noundef %49, ptr noundef nonnull align 8 dereferenceable(32) %4)
          to label %.noexc.i unwind label %50

.noexc.i:                                         ; preds = %48
  invoke void @_ZN11mpz_managerILb1EE3delEPS0_R3mpz(ptr noundef %49, ptr noundef nonnull align 8 dereferenceable(16) %11)
          to label %_ZN8rationalD2Ev.exit unwind label %50

50:                                               ; preds = %.noexc.i, %48
  %51 = landingpad { ptr, i32 }
          catch ptr null
  %52 = extractvalue { ptr, i32 } %51, 0
  call void @__clang_call_terminate(ptr %52) #26
  unreachable

_ZN8rationalD2Ev.exit:                            ; preds = %.noexc.i
  call void @llvm.lifetime.end.p0(i64 32, ptr nonnull %4) #24
  call void @llvm.lifetime.end.p0(i64 4, ptr nonnull %3) #24
  br label %16, !llvm.loop !177

53:                                               ; preds = %39
  %54 = landingpad { ptr, i32 }
          cleanup
  br label %55

55:                                               ; preds = %53, %37
  %.pn.pn = phi { ptr, i32 } [ %38, %37 ], [ %54, %53 ]
  call void @_ZN8rationalD2Ev(ptr noundef nonnull align 8 dereferenceable(32) %4) #24
  call void @llvm.lifetime.end.p0(i64 32, ptr nonnull %4) #24
  call void @llvm.lifetime.end.p0(i64 4, ptr nonnull %3) #24
  resume { ptr, i32 } %.pn.pn
}